
mkfs:     file format elf32-i386


Disassembly of section .init:

080483f4 <_init>:
 80483f4:	53                   	push   %ebx
 80483f5:	83 ec 08             	sub    $0x8,%esp
 80483f8:	e8 00 00 00 00       	call   80483fd <_init+0x9>
 80483fd:	5b                   	pop    %ebx
 80483fe:	81 c3 f7 1b 00 00    	add    $0x1bf7,%ebx
 8048404:	8b 83 fc ff ff ff    	mov    -0x4(%ebx),%eax
 804840a:	85 c0                	test   %eax,%eax
 804840c:	74 05                	je     8048413 <_init+0x1f>
 804840e:	e8 8d 00 00 00       	call   80484a0 <__gmon_start__@plt>
 8048413:	e8 68 01 00 00       	call   8048580 <frame_dummy>
 8048418:	e8 43 06 00 00       	call   8048a60 <__do_global_ctors_aux>
 804841d:	83 c4 08             	add    $0x8,%esp
 8048420:	5b                   	pop    %ebx
 8048421:	c3                   	ret    

Disassembly of section .plt:

08048430 <fclose@plt-0x10>:
 8048430:	ff 35 f8 9f 04 08    	pushl  0x8049ff8
 8048436:	ff 25 fc 9f 04 08    	jmp    *0x8049ffc
 804843c:	00 00                	add    %al,(%eax)
	...

08048440 <fclose@plt>:
 8048440:	ff 25 00 a0 04 08    	jmp    *0x804a000
 8048446:	68 00 00 00 00       	push   $0x0
 804844b:	e9 e0 ff ff ff       	jmp    8048430 <_init+0x3c>

08048450 <time@plt>:
 8048450:	ff 25 04 a0 04 08    	jmp    *0x804a004
 8048456:	68 08 00 00 00       	push   $0x8
 804845b:	e9 d0 ff ff ff       	jmp    8048430 <_init+0x3c>

08048460 <__stack_chk_fail@plt>:
 8048460:	ff 25 08 a0 04 08    	jmp    *0x804a008
 8048466:	68 10 00 00 00       	push   $0x10
 804846b:	e9 c0 ff ff ff       	jmp    8048430 <_init+0x3c>

08048470 <fseek@plt>:
 8048470:	ff 25 0c a0 04 08    	jmp    *0x804a00c
 8048476:	68 18 00 00 00       	push   $0x18
 804847b:	e9 b0 ff ff ff       	jmp    8048430 <_init+0x3c>

08048480 <fwrite@plt>:
 8048480:	ff 25 10 a0 04 08    	jmp    *0x804a010
 8048486:	68 20 00 00 00       	push   $0x20
 804848b:	e9 a0 ff ff ff       	jmp    8048430 <_init+0x3c>

08048490 <puts@plt>:
 8048490:	ff 25 14 a0 04 08    	jmp    *0x804a014
 8048496:	68 28 00 00 00       	push   $0x28
 804849b:	e9 90 ff ff ff       	jmp    8048430 <_init+0x3c>

080484a0 <__gmon_start__@plt>:
 80484a0:	ff 25 18 a0 04 08    	jmp    *0x804a018
 80484a6:	68 30 00 00 00       	push   $0x30
 80484ab:	e9 80 ff ff ff       	jmp    8048430 <_init+0x3c>

080484b0 <exit@plt>:
 80484b0:	ff 25 1c a0 04 08    	jmp    *0x804a01c
 80484b6:	68 38 00 00 00       	push   $0x38
 80484bb:	e9 70 ff ff ff       	jmp    8048430 <_init+0x3c>

080484c0 <__libc_start_main@plt>:
 80484c0:	ff 25 20 a0 04 08    	jmp    *0x804a020
 80484c6:	68 40 00 00 00       	push   $0x40
 80484cb:	e9 60 ff ff ff       	jmp    8048430 <_init+0x3c>

080484d0 <fopen@plt>:
 80484d0:	ff 25 24 a0 04 08    	jmp    *0x804a024
 80484d6:	68 48 00 00 00       	push   $0x48
 80484db:	e9 50 ff ff ff       	jmp    8048430 <_init+0x3c>

080484e0 <strncpy@plt>:
 80484e0:	ff 25 28 a0 04 08    	jmp    *0x804a028
 80484e6:	68 50 00 00 00       	push   $0x50
 80484eb:	e9 40 ff ff ff       	jmp    8048430 <_init+0x3c>

Disassembly of section .text:

080484f0 <_start>:
 80484f0:	31 ed                	xor    %ebp,%ebp
 80484f2:	5e                   	pop    %esi
 80484f3:	89 e1                	mov    %esp,%ecx
 80484f5:	83 e4 f0             	and    $0xfffffff0,%esp
 80484f8:	50                   	push   %eax
 80484f9:	54                   	push   %esp
 80484fa:	52                   	push   %edx
 80484fb:	68 50 8a 04 08       	push   $0x8048a50
 8048500:	68 e0 89 04 08       	push   $0x80489e0
 8048505:	51                   	push   %ecx
 8048506:	56                   	push   %esi
 8048507:	68 a4 85 04 08       	push   $0x80485a4
 804850c:	e8 af ff ff ff       	call   80484c0 <__libc_start_main@plt>
 8048511:	f4                   	hlt    
 8048512:	90                   	nop
 8048513:	90                   	nop
 8048514:	90                   	nop
 8048515:	90                   	nop
 8048516:	90                   	nop
 8048517:	90                   	nop
 8048518:	90                   	nop
 8048519:	90                   	nop
 804851a:	90                   	nop
 804851b:	90                   	nop
 804851c:	90                   	nop
 804851d:	90                   	nop
 804851e:	90                   	nop
 804851f:	90                   	nop

08048520 <__do_global_dtors_aux>:
 8048520:	55                   	push   %ebp
 8048521:	89 e5                	mov    %esp,%ebp
 8048523:	53                   	push   %ebx
 8048524:	83 ec 04             	sub    $0x4,%esp
 8048527:	80 3d 40 a0 04 08 00 	cmpb   $0x0,0x804a040
 804852e:	75 3f                	jne    804856f <__do_global_dtors_aux+0x4f>
 8048530:	a1 44 a0 04 08       	mov    0x804a044,%eax
 8048535:	bb 20 9f 04 08       	mov    $0x8049f20,%ebx
 804853a:	81 eb 1c 9f 04 08    	sub    $0x8049f1c,%ebx
 8048540:	c1 fb 02             	sar    $0x2,%ebx
 8048543:	83 eb 01             	sub    $0x1,%ebx
 8048546:	39 d8                	cmp    %ebx,%eax
 8048548:	73 1e                	jae    8048568 <__do_global_dtors_aux+0x48>
 804854a:	8d b6 00 00 00 00    	lea    0x0(%esi),%esi
 8048550:	83 c0 01             	add    $0x1,%eax
 8048553:	a3 44 a0 04 08       	mov    %eax,0x804a044
 8048558:	ff 14 85 1c 9f 04 08 	call   *0x8049f1c(,%eax,4)
 804855f:	a1 44 a0 04 08       	mov    0x804a044,%eax
 8048564:	39 d8                	cmp    %ebx,%eax
 8048566:	72 e8                	jb     8048550 <__do_global_dtors_aux+0x30>
 8048568:	c6 05 40 a0 04 08 01 	movb   $0x1,0x804a040
 804856f:	83 c4 04             	add    $0x4,%esp
 8048572:	5b                   	pop    %ebx
 8048573:	5d                   	pop    %ebp
 8048574:	c3                   	ret    
 8048575:	8d 74 26 00          	lea    0x0(%esi,%eiz,1),%esi
 8048579:	8d bc 27 00 00 00 00 	lea    0x0(%edi,%eiz,1),%edi

08048580 <frame_dummy>:
 8048580:	55                   	push   %ebp
 8048581:	89 e5                	mov    %esp,%ebp
 8048583:	83 ec 18             	sub    $0x18,%esp
 8048586:	a1 24 9f 04 08       	mov    0x8049f24,%eax
 804858b:	85 c0                	test   %eax,%eax
 804858d:	74 12                	je     80485a1 <frame_dummy+0x21>
 804858f:	b8 00 00 00 00       	mov    $0x0,%eax
 8048594:	85 c0                	test   %eax,%eax
 8048596:	74 09                	je     80485a1 <frame_dummy+0x21>
 8048598:	c7 04 24 24 9f 04 08 	movl   $0x8049f24,(%esp)
 804859f:	ff d0                	call   *%eax
 80485a1:	c9                   	leave  
 80485a2:	c3                   	ret    
 80485a3:	90                   	nop

080485a4 <main>:
#define FIRST_ZONE  0x10
#define MAX_ZONE_NUMBER  10


int main( int argc,  char** argv)
{
 80485a4:	55                   	push   %ebp
 80485a5:	89 e5                	mov    %esp,%ebp
 80485a7:	57                   	push   %edi
 80485a8:	53                   	push   %ebx
 80485a9:	83 e4 f0             	and    $0xfffffff0,%esp
 80485ac:	81 ec 60 01 00 00    	sub    $0x160,%esp
 80485b2:	8b 45 0c             	mov    0xc(%ebp),%eax
 80485b5:	89 44 24 1c          	mov    %eax,0x1c(%esp)
 80485b9:	65 a1 14 00 00 00    	mov    %gs:0x14,%eax
 80485bf:	89 84 24 5c 01 00 00 	mov    %eax,0x15c(%esp)
 80485c6:	31 c0                	xor    %eax,%eax
  struct  super_block  superblock;
  struct d_inode  root;
  struct direct  currentdir , predir;
  char buf[32];
  time_t  timer;    /* the orign define by c lib */
  if ( argc < 2 )
 80485c8:	83 7d 08 01          	cmpl   $0x1,0x8(%ebp)
 80485cc:	7f 18                	jg     80485e6 <main+0x42>
  {
    printf("缺少参数\n");
 80485ce:	c7 04 24 b0 8a 04 08 	movl   $0x8048ab0,(%esp)
 80485d5:	e8 b6 fe ff ff       	call   8048490 <puts@plt>
    exit(0);
 80485da:	c7 04 24 00 00 00 00 	movl   $0x0,(%esp)
 80485e1:	e8 ca fe ff ff       	call   80484b0 <exit@plt>
  }
  fp = fopen (argv[1],"rb+");
 80485e6:	ba bd 8a 04 08       	mov    $0x8048abd,%edx
 80485eb:	8b 44 24 1c          	mov    0x1c(%esp),%eax
 80485ef:	83 c0 04             	add    $0x4,%eax
 80485f2:	8b 00                	mov    (%eax),%eax
 80485f4:	89 54 24 04          	mov    %edx,0x4(%esp)
 80485f8:	89 04 24             	mov    %eax,(%esp)
 80485fb:	e8 d0 fe ff ff       	call   80484d0 <fopen@plt>
 8048600:	89 84 24 b4 00 00 00 	mov    %eax,0xb4(%esp)
  if ( fp == NULL )
 8048607:	83 bc 24 b4 00 00 00 	cmpl   $0x0,0xb4(%esp)
 804860e:	00 
 804860f:	75 18                	jne    8048629 <main+0x85>
  {
     printf("不能打开文件\n");
 8048611:	c7 04 24 c1 8a 04 08 	movl   $0x8048ac1,(%esp)
 8048618:	e8 73 fe ff ff       	call   8048490 <puts@plt>
     exit(0);
 804861d:	c7 04 24 00 00 00 00 	movl   $0x0,(%esp)
 8048624:	e8 87 fe ff ff       	call   80484b0 <exit@plt>
  }
  timer  = time(NULL);
 8048629:	c7 04 24 00 00 00 00 	movl   $0x0,(%esp)
 8048630:	e8 1b fe ff ff       	call   8048450 <time@plt>
 8048635:	89 84 24 b8 00 00 00 	mov    %eax,0xb8(%esp)
  /* init to zero */
  memset(buf, 0 , sizeof(buf) );
 804863c:	8d 84 24 3c 01 00 00 	lea    0x13c(%esp),%eax
 8048643:	89 c2                	mov    %eax,%edx
 8048645:	b9 00 00 00 00       	mov    $0x0,%ecx
 804864a:	b8 20 00 00 00       	mov    $0x20,%eax
 804864f:	89 c3                	mov    %eax,%ebx
 8048651:	83 e3 fc             	and    $0xfffffffc,%ebx
 8048654:	b8 00 00 00 00       	mov    $0x0,%eax
 8048659:	89 0c 02             	mov    %ecx,(%edx,%eax,1)
 804865c:	83 c0 04             	add    $0x4,%eax
 804865f:	39 d8                	cmp    %ebx,%eax
 8048661:	72 f6                	jb     8048659 <main+0xb5>
 8048663:	01 c2                	add    %eax,%edx
  memset(&superblock, 0 , sizeof(struct super_block));
 8048665:	8d 44 24 24          	lea    0x24(%esp),%eax
 8048669:	89 c3                	mov    %eax,%ebx
 804866b:	b8 00 00 00 00       	mov    $0x0,%eax
 8048670:	ba 13 00 00 00       	mov    $0x13,%edx
 8048675:	89 df                	mov    %ebx,%edi
 8048677:	89 d1                	mov    %edx,%ecx
 8048679:	f3 ab                	rep stos %eax,%es:(%edi)
  memset(&root, 0, sizeof(struct d_inode ));
 804867b:	8d 44 24 70          	lea    0x70(%esp),%eax
 804867f:	89 c3                	mov    %eax,%ebx
 8048681:	b8 00 00 00 00       	mov    $0x0,%eax
 8048686:	ba 10 00 00 00       	mov    $0x10,%edx
 804868b:	89 df                	mov    %ebx,%edi
 804868d:	89 d1                	mov    %edx,%ecx
 804868f:	f3 ab                	rep stos %eax,%es:(%edi)
  /* make a file system that compatible with minix3 system */
  superblock.s_ninodes = 0x300 ;
 8048691:	c7 44 24 24 00 03 00 	movl   $0x300,0x24(%esp)
 8048698:	00 
  superblock.s_nzones  = 0 ; 
 8048699:	66 c7 44 24 28 00 00 	movw   $0x0,0x28(%esp)
  superblock.s_magic   =  SUPER_BLOCK_V3;
 80486a0:	66 c7 44 24 3c 5a 4d 	movw   $0x4d5a,0x3c(%esp)
  superblock.s_imap_blocks  = 1 ;
 80486a7:	66 c7 44 24 2a 01 00 	movw   $0x1,0x2a(%esp)
  superblock.s_zmap_blocks  = 1 ;
 80486ae:	66 c7 44 24 2c 01 00 	movw   $0x1,0x2c(%esp)
  superblock.s_firstdatazone =FIRST_ZONE ;
 80486b5:	66 c7 44 24 2e 10 00 	movw   $0x10,0x2e(%esp)
  superblock.s_log_zone_size = 0;
 80486bc:	66 c7 44 24 30 00 00 	movw   $0x0,0x30(%esp)
  superblock.s_zones = 0x168;
 80486c3:	c7 44 24 38 68 01 00 	movl   $0x168,0x38(%esp)
 80486ca:	00 
  superblock.s_max_size = 0x7fffffff; 
 80486cb:	c7 44 24 34 ff ff ff 	movl   $0x7fffffff,0x34(%esp)
 80486d2:	7f 
  superblock.s_block_size = 0x1000;
 80486d3:	66 c7 44 24 40 00 10 	movw   $0x1000,0x40(%esp)
  fseek(fp, SUPER_BLOCK*SECT_SIZ,0);
 80486da:	c7 44 24 08 00 00 00 	movl   $0x0,0x8(%esp)
 80486e1:	00 
 80486e2:	c7 44 24 04 00 04 00 	movl   $0x400,0x4(%esp)
 80486e9:	00 
 80486ea:	8b 84 24 b4 00 00 00 	mov    0xb4(%esp),%eax
 80486f1:	89 04 24             	mov    %eax,(%esp)
 80486f4:	e8 77 fd ff ff       	call   8048470 <fseek@plt>
  fwrite(&superblock, sizeof(struct super_block) , 1,  fp );
 80486f9:	8d 44 24 24          	lea    0x24(%esp),%eax
 80486fd:	8b 94 24 b4 00 00 00 	mov    0xb4(%esp),%edx
 8048704:	89 54 24 0c          	mov    %edx,0xc(%esp)
 8048708:	c7 44 24 08 01 00 00 	movl   $0x1,0x8(%esp)
 804870f:	00 
 8048710:	c7 44 24 04 4c 00 00 	movl   $0x4c,0x4(%esp)
 8048717:	00 
 8048718:	89 04 24             	mov    %eax,(%esp)
 804871b:	e8 60 fd ff ff       	call   8048480 <fwrite@plt>
  
  /*  make root inode */
  root.d_mode = ROOT_DIR_TYPE ;
 8048720:	66 c7 44 24 70 ff 41 	movw   $0x41ff,0x70(%esp)
  root.d_nlinks = 0x2;
 8048727:	66 c7 44 24 72 02 00 	movw   $0x2,0x72(%esp)
  root.d_uid = 2 ;
 804872e:	66 c7 44 24 74 02 00 	movw   $0x2,0x74(%esp)
  root.d_gid = 2;
 8048735:	66 c7 44 24 76 02 00 	movw   $0x2,0x76(%esp)
  root.d_size =0x80;
 804873c:	c7 44 24 78 80 00 00 	movl   $0x80,0x78(%esp)
 8048743:	00 
  root.d_atime = 0;
 8048744:	c7 44 24 7c 00 00 00 	movl   $0x0,0x7c(%esp)
 804874b:	00 
  root.d_mtime = timer;
 804874c:	8b 84 24 b8 00 00 00 	mov    0xb8(%esp),%eax
 8048753:	89 84 24 80 00 00 00 	mov    %eax,0x80(%esp)
  root.d_ctime = 0;
 804875a:	c7 84 24 84 00 00 00 	movl   $0x0,0x84(%esp)
 8048761:	00 00 00 00 
  for ( i = 0 ; i < MAX_ZONE_NUMBER ; i++ )
 8048765:	c7 84 24 b0 00 00 00 	movl   $0x0,0xb0(%esp)
 804876c:	00 00 00 00 
 8048770:	eb 1a                	jmp    804878c <main+0x1e8>
  {
      root.d_zone[i] = 0 ;
 8048772:	8b 84 24 b0 00 00 00 	mov    0xb0(%esp),%eax
 8048779:	83 c0 04             	add    $0x4,%eax
 804877c:	c7 44 84 78 00 00 00 	movl   $0x0,0x78(%esp,%eax,4)
 8048783:	00 
  root.d_gid = 2;
  root.d_size =0x80;
  root.d_atime = 0;
  root.d_mtime = timer;
  root.d_ctime = 0;
  for ( i = 0 ; i < MAX_ZONE_NUMBER ; i++ )
 8048784:	83 84 24 b0 00 00 00 	addl   $0x1,0xb0(%esp)
 804878b:	01 
 804878c:	83 bc 24 b0 00 00 00 	cmpl   $0x9,0xb0(%esp)
 8048793:	09 
 8048794:	7e dc                	jle    8048772 <main+0x1ce>
  {
      root.d_zone[i] = 0 ;
  } 
  root.d_zone[0] = FIRST_ZONE ;
 8048796:	c7 84 24 88 00 00 00 	movl   $0x10,0x88(%esp)
 804879d:	10 00 00 00 
  fseek(fp, (SUPER_BLOCK+2)*BLOCK_SIZ , 0);
 80487a1:	c7 44 24 08 00 00 00 	movl   $0x0,0x8(%esp)
 80487a8:	00 
 80487a9:	c7 44 24 04 00 40 00 	movl   $0x4000,0x4(%esp)
 80487b0:	00 
 80487b1:	8b 84 24 b4 00 00 00 	mov    0xb4(%esp),%eax
 80487b8:	89 04 24             	mov    %eax,(%esp)
 80487bb:	e8 b0 fc ff ff       	call   8048470 <fseek@plt>
  fwrite(&root, sizeof(struct d_inode) , 1, fp);
 80487c0:	8d 44 24 70          	lea    0x70(%esp),%eax
 80487c4:	8b 94 24 b4 00 00 00 	mov    0xb4(%esp),%edx
 80487cb:	89 54 24 0c          	mov    %edx,0xc(%esp)
 80487cf:	c7 44 24 08 01 00 00 	movl   $0x1,0x8(%esp)
 80487d6:	00 
 80487d7:	c7 44 24 04 40 00 00 	movl   $0x40,0x4(%esp)
 80487de:	00 
 80487df:	89 04 24             	mov    %eax,(%esp)
 80487e2:	e8 99 fc ff ff       	call   8048480 <fwrite@plt>

  /* make inode map and zone map   */
  fseek(fp, (SUPER_BLOCK)*BLOCK_SIZ, 0);
 80487e7:	c7 44 24 08 00 00 00 	movl   $0x0,0x8(%esp)
 80487ee:	00 
 80487ef:	c7 44 24 04 00 20 00 	movl   $0x2000,0x4(%esp)
 80487f6:	00 
 80487f7:	8b 84 24 b4 00 00 00 	mov    0xb4(%esp),%eax
 80487fe:	89 04 24             	mov    %eax,(%esp)
 8048801:	e8 6a fc ff ff       	call   8048470 <fseek@plt>
  buf[0] = 3;
 8048806:	c6 84 24 3c 01 00 00 	movb   $0x3,0x13c(%esp)
 804880d:	03 
  fwrite(buf,sizeof(buf) , 1, fp );
 804880e:	8d 84 24 3c 01 00 00 	lea    0x13c(%esp),%eax
 8048815:	8b 94 24 b4 00 00 00 	mov    0xb4(%esp),%edx
 804881c:	89 54 24 0c          	mov    %edx,0xc(%esp)
 8048820:	c7 44 24 08 01 00 00 	movl   $0x1,0x8(%esp)
 8048827:	00 
 8048828:	c7 44 24 04 20 00 00 	movl   $0x20,0x4(%esp)
 804882f:	00 
 8048830:	89 04 24             	mov    %eax,(%esp)
 8048833:	e8 48 fc ff ff       	call   8048480 <fwrite@plt>
  fseek(fp, (SUPER_BLOCK+1)*BLOCK_SIZ, 0);
 8048838:	c7 44 24 08 00 00 00 	movl   $0x0,0x8(%esp)
 804883f:	00 
 8048840:	c7 44 24 04 00 30 00 	movl   $0x3000,0x4(%esp)
 8048847:	00 
 8048848:	8b 84 24 b4 00 00 00 	mov    0xb4(%esp),%eax
 804884f:	89 04 24             	mov    %eax,(%esp)
 8048852:	e8 19 fc ff ff       	call   8048470 <fseek@plt>
  fwrite(buf , sizeof(buf) , 1 , fp );
 8048857:	8d 84 24 3c 01 00 00 	lea    0x13c(%esp),%eax
 804885e:	8b 94 24 b4 00 00 00 	mov    0xb4(%esp),%edx
 8048865:	89 54 24 0c          	mov    %edx,0xc(%esp)
 8048869:	c7 44 24 08 01 00 00 	movl   $0x1,0x8(%esp)
 8048870:	00 
 8048871:	c7 44 24 04 20 00 00 	movl   $0x20,0x4(%esp)
 8048878:	00 
 8048879:	89 04 24             	mov    %eax,(%esp)
 804887c:	e8 ff fb ff ff       	call   8048480 <fwrite@plt>
  /*  make directory item */
  currentdir.d_ino = 1 ;
 8048881:	c7 84 24 bc 00 00 00 	movl   $0x1,0xbc(%esp)
 8048888:	01 00 00 00 
  strncpy(currentdir.d_name, ".", sizeof(currentdir.d_name));
 804888c:	b8 d4 8a 04 08       	mov    $0x8048ad4,%eax
 8048891:	c7 44 24 08 3c 00 00 	movl   $0x3c,0x8(%esp)
 8048898:	00 
 8048899:	89 44 24 04          	mov    %eax,0x4(%esp)
 804889d:	8d 84 24 bc 00 00 00 	lea    0xbc(%esp),%eax
 80488a4:	83 c0 04             	add    $0x4,%eax
 80488a7:	89 04 24             	mov    %eax,(%esp)
 80488aa:	e8 31 fc ff ff       	call   80484e0 <strncpy@plt>
  predir.d_ino = 1 ; 
 80488af:	c7 84 24 fc 00 00 00 	movl   $0x1,0xfc(%esp)
 80488b6:	01 00 00 00 
  strncpy(predir.d_name, "..", sizeof(predir.d_name));
 80488ba:	b8 d6 8a 04 08       	mov    $0x8048ad6,%eax
 80488bf:	c7 44 24 08 3c 00 00 	movl   $0x3c,0x8(%esp)
 80488c6:	00 
 80488c7:	89 44 24 04          	mov    %eax,0x4(%esp)
 80488cb:	8d 84 24 fc 00 00 00 	lea    0xfc(%esp),%eax
 80488d2:	83 c0 04             	add    $0x4,%eax
 80488d5:	89 04 24             	mov    %eax,(%esp)
 80488d8:	e8 03 fc ff ff       	call   80484e0 <strncpy@plt>
  fseek(fp, FIRST_ZONE*BLOCK_SIZ, 0);
 80488dd:	c7 44 24 08 00 00 00 	movl   $0x0,0x8(%esp)
 80488e4:	00 
 80488e5:	c7 44 24 04 00 00 01 	movl   $0x10000,0x4(%esp)
 80488ec:	00 
 80488ed:	8b 84 24 b4 00 00 00 	mov    0xb4(%esp),%eax
 80488f4:	89 04 24             	mov    %eax,(%esp)
 80488f7:	e8 74 fb ff ff       	call   8048470 <fseek@plt>
  fwrite(&currentdir ,  sizeof(struct direct) , 1 ,fp);
 80488fc:	8d 84 24 bc 00 00 00 	lea    0xbc(%esp),%eax
 8048903:	8b 94 24 b4 00 00 00 	mov    0xb4(%esp),%edx
 804890a:	89 54 24 0c          	mov    %edx,0xc(%esp)
 804890e:	c7 44 24 08 01 00 00 	movl   $0x1,0x8(%esp)
 8048915:	00 
 8048916:	c7 44 24 04 40 00 00 	movl   $0x40,0x4(%esp)
 804891d:	00 
 804891e:	89 04 24             	mov    %eax,(%esp)
 8048921:	e8 5a fb ff ff       	call   8048480 <fwrite@plt>
  fwrite(&predir , sizeof(struct direct) , 1 , fp);
 8048926:	8d 84 24 fc 00 00 00 	lea    0xfc(%esp),%eax
 804892d:	8b 94 24 b4 00 00 00 	mov    0xb4(%esp),%edx
 8048934:	89 54 24 0c          	mov    %edx,0xc(%esp)
 8048938:	c7 44 24 08 01 00 00 	movl   $0x1,0x8(%esp)
 804893f:	00 
 8048940:	c7 44 24 04 40 00 00 	movl   $0x40,0x4(%esp)
 8048947:	00 
 8048948:	89 04 24             	mov    %eax,(%esp)
 804894b:	e8 30 fb ff ff       	call   8048480 <fwrite@plt>
  buf[0] =  0x2f;
 8048950:	c6 84 24 3c 01 00 00 	movb   $0x2f,0x13c(%esp)
 8048957:	2f 
  buf[1] = 0x1f;
 8048958:	c6 84 24 3d 01 00 00 	movb   $0x1f,0x13d(%esp)
 804895f:	1f 
  fseek(fp, 0x167ffe, 0);
 8048960:	c7 44 24 08 00 00 00 	movl   $0x0,0x8(%esp)
 8048967:	00 
 8048968:	c7 44 24 04 fe 7f 16 	movl   $0x167ffe,0x4(%esp)
 804896f:	00 
 8048970:	8b 84 24 b4 00 00 00 	mov    0xb4(%esp),%eax
 8048977:	89 04 24             	mov    %eax,(%esp)
 804897a:	e8 f1 fa ff ff       	call   8048470 <fseek@plt>
  fwrite(buf, 2, 1,  fp);
 804897f:	8d 84 24 3c 01 00 00 	lea    0x13c(%esp),%eax
 8048986:	8b 94 24 b4 00 00 00 	mov    0xb4(%esp),%edx
 804898d:	89 54 24 0c          	mov    %edx,0xc(%esp)
 8048991:	c7 44 24 08 01 00 00 	movl   $0x1,0x8(%esp)
 8048998:	00 
 8048999:	c7 44 24 04 02 00 00 	movl   $0x2,0x4(%esp)
 80489a0:	00 
 80489a1:	89 04 24             	mov    %eax,(%esp)
 80489a4:	e8 d7 fa ff ff       	call   8048480 <fwrite@plt>
  fclose(fp);
 80489a9:	8b 84 24 b4 00 00 00 	mov    0xb4(%esp),%eax
 80489b0:	89 04 24             	mov    %eax,(%esp)
 80489b3:	e8 88 fa ff ff       	call   8048440 <fclose@plt>
  return 0;
 80489b8:	b8 00 00 00 00       	mov    $0x0,%eax
}
 80489bd:	8b 94 24 5c 01 00 00 	mov    0x15c(%esp),%edx
 80489c4:	65 33 15 14 00 00 00 	xor    %gs:0x14,%edx
 80489cb:	74 05                	je     80489d2 <main+0x42e>
 80489cd:	e8 8e fa ff ff       	call   8048460 <__stack_chk_fail@plt>
 80489d2:	8d 65 f8             	lea    -0x8(%ebp),%esp
 80489d5:	5b                   	pop    %ebx
 80489d6:	5f                   	pop    %edi
 80489d7:	5d                   	pop    %ebp
 80489d8:	c3                   	ret    
 80489d9:	90                   	nop
 80489da:	90                   	nop
 80489db:	90                   	nop
 80489dc:	90                   	nop
 80489dd:	90                   	nop
 80489de:	90                   	nop
 80489df:	90                   	nop

080489e0 <__libc_csu_init>:
 80489e0:	55                   	push   %ebp
 80489e1:	57                   	push   %edi
 80489e2:	56                   	push   %esi
 80489e3:	53                   	push   %ebx
 80489e4:	e8 69 00 00 00       	call   8048a52 <__i686.get_pc_thunk.bx>
 80489e9:	81 c3 0b 16 00 00    	add    $0x160b,%ebx
 80489ef:	83 ec 1c             	sub    $0x1c,%esp
 80489f2:	8b 6c 24 30          	mov    0x30(%esp),%ebp
 80489f6:	8d bb 20 ff ff ff    	lea    -0xe0(%ebx),%edi
 80489fc:	e8 f3 f9 ff ff       	call   80483f4 <_init>
 8048a01:	8d 83 20 ff ff ff    	lea    -0xe0(%ebx),%eax
 8048a07:	29 c7                	sub    %eax,%edi
 8048a09:	c1 ff 02             	sar    $0x2,%edi
 8048a0c:	85 ff                	test   %edi,%edi
 8048a0e:	74 29                	je     8048a39 <__libc_csu_init+0x59>
 8048a10:	31 f6                	xor    %esi,%esi
 8048a12:	8d b6 00 00 00 00    	lea    0x0(%esi),%esi
 8048a18:	8b 44 24 38          	mov    0x38(%esp),%eax
 8048a1c:	89 2c 24             	mov    %ebp,(%esp)
 8048a1f:	89 44 24 08          	mov    %eax,0x8(%esp)
 8048a23:	8b 44 24 34          	mov    0x34(%esp),%eax
 8048a27:	89 44 24 04          	mov    %eax,0x4(%esp)
 8048a2b:	ff 94 b3 20 ff ff ff 	call   *-0xe0(%ebx,%esi,4)
 8048a32:	83 c6 01             	add    $0x1,%esi
 8048a35:	39 fe                	cmp    %edi,%esi
 8048a37:	75 df                	jne    8048a18 <__libc_csu_init+0x38>
 8048a39:	83 c4 1c             	add    $0x1c,%esp
 8048a3c:	5b                   	pop    %ebx
 8048a3d:	5e                   	pop    %esi
 8048a3e:	5f                   	pop    %edi
 8048a3f:	5d                   	pop    %ebp
 8048a40:	c3                   	ret    
 8048a41:	eb 0d                	jmp    8048a50 <__libc_csu_fini>
 8048a43:	90                   	nop
 8048a44:	90                   	nop
 8048a45:	90                   	nop
 8048a46:	90                   	nop
 8048a47:	90                   	nop
 8048a48:	90                   	nop
 8048a49:	90                   	nop
 8048a4a:	90                   	nop
 8048a4b:	90                   	nop
 8048a4c:	90                   	nop
 8048a4d:	90                   	nop
 8048a4e:	90                   	nop
 8048a4f:	90                   	nop

08048a50 <__libc_csu_fini>:
 8048a50:	f3 c3                	repz ret 

08048a52 <__i686.get_pc_thunk.bx>:
 8048a52:	8b 1c 24             	mov    (%esp),%ebx
 8048a55:	c3                   	ret    
 8048a56:	90                   	nop
 8048a57:	90                   	nop
 8048a58:	90                   	nop
 8048a59:	90                   	nop
 8048a5a:	90                   	nop
 8048a5b:	90                   	nop
 8048a5c:	90                   	nop
 8048a5d:	90                   	nop
 8048a5e:	90                   	nop
 8048a5f:	90                   	nop

08048a60 <__do_global_ctors_aux>:
 8048a60:	55                   	push   %ebp
 8048a61:	89 e5                	mov    %esp,%ebp
 8048a63:	53                   	push   %ebx
 8048a64:	83 ec 04             	sub    $0x4,%esp
 8048a67:	a1 14 9f 04 08       	mov    0x8049f14,%eax
 8048a6c:	83 f8 ff             	cmp    $0xffffffff,%eax
 8048a6f:	74 13                	je     8048a84 <__do_global_ctors_aux+0x24>
 8048a71:	bb 14 9f 04 08       	mov    $0x8049f14,%ebx
 8048a76:	66 90                	xchg   %ax,%ax
 8048a78:	83 eb 04             	sub    $0x4,%ebx
 8048a7b:	ff d0                	call   *%eax
 8048a7d:	8b 03                	mov    (%ebx),%eax
 8048a7f:	83 f8 ff             	cmp    $0xffffffff,%eax
 8048a82:	75 f4                	jne    8048a78 <__do_global_ctors_aux+0x18>
 8048a84:	83 c4 04             	add    $0x4,%esp
 8048a87:	5b                   	pop    %ebx
 8048a88:	5d                   	pop    %ebp
 8048a89:	c3                   	ret    
 8048a8a:	90                   	nop
 8048a8b:	90                   	nop

Disassembly of section .fini:

08048a8c <_fini>:
 8048a8c:	53                   	push   %ebx
 8048a8d:	83 ec 08             	sub    $0x8,%esp
 8048a90:	e8 00 00 00 00       	call   8048a95 <_fini+0x9>
 8048a95:	5b                   	pop    %ebx
 8048a96:	81 c3 5f 15 00 00    	add    $0x155f,%ebx
 8048a9c:	e8 7f fa ff ff       	call   8048520 <__do_global_dtors_aux>
 8048aa1:	83 c4 08             	add    $0x8,%esp
 8048aa4:	5b                   	pop    %ebx
 8048aa5:	c3                   	ret    
